target datalayout = "e-m:e-p270:32:32-p271:32:32-p272:64:64-i64:64-i128:128-f80:128-n8:16:32:64-S128"
target triple = "x86_64-pc-linux-gnu"

%struct.lexbor_str_t = type { ptr, i64 }

; Function Attrs: nounwind uwtable
define hidden void @lexbor_str_strip_collapse_whitespace(ptr noundef %0) #0 {
  %2 = alloca ptr, align 8
  %3 = alloca i64, align 8
  %4 = alloca i64, align 8
  %5 = alloca i64, align 8
  %6 = alloca ptr, align 8
  store ptr %0, ptr %2, align 8
  %7 = load ptr, ptr %2, align 8
  %8 = getelementptr inbounds %struct.lexbor_str_t, ptr %7, i32 0, i32 0
  %9 = load ptr, ptr %8, align 8
  store ptr %9, ptr %6, align 8
  %10 = load ptr, ptr %2, align 8
  %11 = getelementptr inbounds %struct.lexbor_str_t, ptr %10, i32 0, i32 1
  %12 = load i64, ptr %11, align 8
  %13 = icmp eq i64 %12, 0
  br i1 %13, label %14, label %15

14:                                               ; preds = %1
  br label %148

15:                                               ; preds = %1
  %16 = load ptr, ptr %6, align 8
  %17 = load i8, ptr %16, align 1
  %18 = zext i8 %17 to i32
  %19 = icmp eq i32 %18, 32
  br i1 %19, label %40, label %20

20:                                               ; preds = %15
  %21 = load ptr, ptr %6, align 8
  %22 = load i8, ptr %21, align 1
  %23 = zext i8 %22 to i32
  %24 = icmp eq i32 %23, 9
  br i1 %24, label %40, label %25

25:                                               ; preds = %20
  %26 = load ptr, ptr %6, align 8
  %27 = load i8, ptr %26, align 1
  %28 = zext i8 %27 to i32
  %29 = icmp eq i32 %28, 10
  br i1 %29, label %40, label %30

30:                                               ; preds = %25
  %31 = load ptr, ptr %6, align 8
  %32 = load i8, ptr %31, align 1
  %33 = zext i8 %32 to i32
  %34 = icmp eq i32 %33, 12
  br i1 %34, label %40, label %35

35:                                               ; preds = %30
  %36 = load ptr, ptr %6, align 8
  %37 = load i8, ptr %36, align 1
  %38 = zext i8 %37 to i32
  %39 = icmp eq i32 %38, 13
  br i1 %39, label %40, label %42

40:                                               ; preds = %35, %30, %25, %20, %15
  %41 = load ptr, ptr %6, align 8
  store i8 32, ptr %41, align 1
  br label %42

42:                                               ; preds = %40, %35
  store i64 0, ptr %3, align 8
  store i64 0, ptr %4, align 8
  store i64 0, ptr %5, align 8
  br label %43

43:                                               ; preds = %119, %42
  %44 = load i64, ptr %3, align 8
  %45 = load ptr, ptr %2, align 8
  %46 = getelementptr inbounds %struct.lexbor_str_t, ptr %45, i32 0, i32 1
  %47 = load i64, ptr %46, align 8
  %48 = icmp ult i64 %44, %47
  br i1 %48, label %49, label %122

49:                                               ; preds = %43
  %50 = load ptr, ptr %6, align 8
  %51 = load i64, ptr %3, align 8
  %52 = getelementptr inbounds i8, ptr %50, i64 %51
  %53 = load i8, ptr %52, align 1
  %54 = zext i8 %53 to i32
  %55 = icmp eq i32 %54, 32
  br i1 %55, label %84, label %56

56:                                               ; preds = %49
  %57 = load ptr, ptr %6, align 8
  %58 = load i64, ptr %3, align 8
  %59 = getelementptr inbounds i8, ptr %57, i64 %58
  %60 = load i8, ptr %59, align 1
  %61 = zext i8 %60 to i32
  %62 = icmp eq i32 %61, 9
  br i1 %62, label %84, label %63

63:                                               ; preds = %56
  %64 = load ptr, ptr %6, align 8
  %65 = load i64, ptr %3, align 8
  %66 = getelementptr inbounds i8, ptr %64, i64 %65
  %67 = load i8, ptr %66, align 1
  %68 = zext i8 %67 to i32
  %69 = icmp eq i32 %68, 10
  br i1 %69, label %84, label %70

70:                                               ; preds = %63
  %71 = load ptr, ptr %6, align 8
  %72 = load i64, ptr %3, align 8
  %73 = getelementptr inbounds i8, ptr %71, i64 %72
  %74 = load i8, ptr %73, align 1
  %75 = zext i8 %74 to i32
  %76 = icmp eq i32 %75, 12
  br i1 %76, label %84, label %77

77:                                               ; preds = %70
  %78 = load ptr, ptr %6, align 8
  %79 = load i64, ptr %3, align 8
  %80 = getelementptr inbounds i8, ptr %78, i64 %79
  %81 = load i8, ptr %80, align 1
  %82 = zext i8 %81 to i32
  %83 = icmp eq i32 %82, 13
  br i1 %83, label %84, label %99

84:                                               ; preds = %77, %70, %63, %56, %49
  %85 = load ptr, ptr %6, align 8
  %86 = load i64, ptr %5, align 8
  %87 = getelementptr inbounds i8, ptr %85, i64 %86
  %88 = load i8, ptr %87, align 1
  %89 = zext i8 %88 to i32
  %90 = icmp ne i32 %89, 32
  br i1 %90, label %91, label %98

91:                                               ; preds = %84
  %92 = load ptr, ptr %6, align 8
  %93 = load i64, ptr %4, align 8
  %94 = getelementptr inbounds i8, ptr %92, i64 %93
  store i8 32, ptr %94, align 1
  %95 = load i64, ptr %4, align 8
  store i64 %95, ptr %5, align 8
  %96 = load i64, ptr %4, align 8
  %97 = add i64 %96, 1
  store i64 %97, ptr %4, align 8
  br label %98

98:                                               ; preds = %91, %84
  br label %118

99:                                               ; preds = %77
  %100 = load ptr, ptr %6, align 8
  %101 = load i64, ptr %5, align 8
  %102 = getelementptr inbounds i8, ptr %100, i64 %101
  %103 = load i8, ptr %102, align 1
  %104 = zext i8 %103 to i32
  %105 = icmp eq i32 %104, 32
  br i1 %105, label %106, label %108

106:                                              ; preds = %99
  %107 = load i64, ptr %4, align 8
  store i64 %107, ptr %5, align 8
  br label %108

108:                                              ; preds = %106, %99
  %109 = load ptr, ptr %6, align 8
  %110 = load i64, ptr %3, align 8
  %111 = getelementptr inbounds i8, ptr %109, i64 %110
  %112 = load i8, ptr %111, align 1
  %113 = load ptr, ptr %6, align 8
  %114 = load i64, ptr %4, align 8
  %115 = getelementptr inbounds i8, ptr %113, i64 %114
  store i8 %112, ptr %115, align 1
  %116 = load i64, ptr %4, align 8
  %117 = add i64 %116, 1
  store i64 %117, ptr %4, align 8
  br label %118

118:                                              ; preds = %108, %98
  br label %119

119:                                              ; preds = %118
  %120 = load i64, ptr %3, align 8
  %121 = add i64 %120, 1
  store i64 %121, ptr %3, align 8
  br label %43

122:                                              ; preds = %43
  %123 = load i64, ptr %4, align 8
  %124 = load i64, ptr %3, align 8
  %125 = icmp ne i64 %123, %124
  br i1 %125, label %126, label %148

126:                                              ; preds = %122
  %127 = load i64, ptr %4, align 8
  %128 = icmp ne i64 %127, 0
  br i1 %128, label %129, label %141

129:                                              ; preds = %126
  %130 = load ptr, ptr %6, align 8
  %131 = load i64, ptr %4, align 8
  %132 = sub i64 %131, 1
  %133 = getelementptr inbounds i8, ptr %130, i64 %132
  %134 = load i8, ptr %133, align 1
  %135 = zext i8 %134 to i32
  %136 = icmp eq i32 %135, 32
  br i1 %136, label %137, label %140

137:                                              ; preds = %129
  %138 = load i64, ptr %4, align 8
  %139 = add i64 %138, -1
  store i64 %139, ptr %4, align 8
  br label %140

140:                                              ; preds = %137, %129
  br label %141

141:                                              ; preds = %140, %126
  %142 = load ptr, ptr %6, align 8
  %143 = load i64, ptr %4, align 8
  %144 = getelementptr inbounds i8, ptr %142, i64 %143
  store i8 0, ptr %144, align 1
  %145 = load i64, ptr %4, align 8
  %146 = load ptr, ptr %2, align 8
  %147 = getelementptr inbounds %struct.lexbor_str_t, ptr %146, i32 0, i32 1
  store i64 %145, ptr %147, align 8
  br label %148

148:                                              ; preds = %141, %122, %14
  ret void
}