; Function Attrs: nofree norecurse nosync nounwind memory(readwrite, inaccessiblemem: none) uwtable
define hidden void @lexbor_str_strip_collapse_whitespace(ptr nocapture noundef %0) local_unnamed_addr #6 {
  %2 = load ptr, ptr %0, align 8
  %3 = getelementptr inbounds i8, ptr %0, i64 8
  %4 = load i64, ptr %3, align 8
  %5 = icmp eq i64 %4, 0
  br i1 %5, label %._crit_edge.thread, label %6

6:                                                ; preds = %1
  %7 = load i8, ptr %2, align 1
  switch i8 %7, label %.lr.ph.preheader [
    i8 32, label %8
    i8 9, label %8
    i8 10, label %8
    i8 12, label %8
    i8 13, label %8
  ]

8:                                                ; preds = %6, %6, %6, %6, %6
  store i8 32, ptr %2, align 1
  %.pre = load i64, ptr %3, align 8
  %9 = icmp eq i64 %.pre, 0
  br i1 %9, label %._crit_edge.thread, label %.lr.ph.preheader

.lr.ph.preheader:                                 ; preds = %6, %8
  br label %.lr.ph

.lr.ph:                                           ; preds = %.lr.ph.preheader, %21
  %.055 = phi i64 [ %22, %21 ], [ 0, %.lr.ph.preheader ]
  %.04454 = phi i64 [ %.2, %21 ], [ 0, %.lr.ph.preheader ]
  %.04553 = phi i64 [ %.146, %21 ], [ 0, %.lr.ph.preheader ]
  %10 = getelementptr inbounds i8, ptr %2, i64 %.055
  %11 = load i8, ptr %10, align 1
  switch i8 %11, label %15 [
    i8 32, label %12
    i8 9, label %12
    i8 10, label %12
    i8 12, label %12
    i8 13, label %12
  ]

12:                                               ; preds = %.lr.ph, %.lr.ph, %.lr.ph, %.lr.ph, %.lr.ph
  %13 = getelementptr inbounds i8, ptr %2, i64 %.04454
  %14 = load i8, ptr %13, align 1
  %.not51 = icmp eq i8 %14, 32
  br i1 %.not51, label %21, label %.sink.split

15:                                               ; preds = %.lr.ph
  %16 = getelementptr inbounds i8, ptr %2, i64 %.04454
  %17 = load i8, ptr %16, align 1
  %18 = icmp eq i8 %17, 32
  %spec.select = select i1 %18, i64 %.04553, i64 %.04454
  br label %.sink.split

.sink.split:                                      ; preds = %12, %15
  %.sink = phi i8 [ %11, %15 ], [ 32, %12 ]
  %.2.ph = phi i64 [ %spec.select, %15 ], [ %.04553, %12 ]
  %19 = getelementptr inbounds i8, ptr %2, i64 %.04553
  store i8 %.sink, ptr %19, align 1
  %20 = add i64 %.04553, 1
  br label %21

21:                                               ; preds = %.sink.split, %12
  %.146 = phi i64 [ %.04553, %12 ], [ %20, %.sink.split ]
  %.2 = phi i64 [ %.04454, %12 ], [ %.2.ph, %.sink.split ]
  %22 = add nuw i64 %.055, 1
  %23 = load i64, ptr %3, align 8
  %24 = icmp ult i64 %22, %23
  br i1 %24, label %.lr.ph, label %._crit_edge

._crit_edge:                                      ; preds = %21
  %.not = icmp eq i64 %.146, %22
  br i1 %.not, label %._crit_edge.thread, label %25

25:                                               ; preds = %._crit_edge
  %.not50 = icmp eq i64 %.146, 0
  br i1 %.not50, label %32, label %26

26:                                               ; preds = %25
  %27 = getelementptr i8, ptr %2, i64 %.146
  %28 = getelementptr i8, ptr %27, i64 -1
  %29 = load i8, ptr %28, align 1
  %30 = icmp eq i8 %29, 32
  %31 = sext i1 %30 to i64
  %spec.select52 = add i64 %.146, %31
  br label %32

32:                                               ; preds = %26, %25
  %.247 = phi i64 [ 0, %25 ], [ %spec.select52, %26 ]
  %33 = getelementptr inbounds i8, ptr %2, i64 %.247
  store i8 0, ptr %33, align 1
  store i64 %.247, ptr %3, align 8
  br label %._crit_edge.thread

._crit_edge.thread:                               ; preds = %8, %1, %32, %._crit_edge
  ret void
}